(lp0
(lp1
I0
aI20
aa(lp2
I20
aI40
aa(lp3
I40
aI60
aa(lp4
I60
aI80
aa(lp5
I80
aI100
aa(lp6
I100
aI120
aa(lp7
I120
aI140
aa(lp8
I140
aI160
aa(lp9
I160
aI180
aa(lp10
I180
aI200
aa(lp11
I200
aI220
aa(lp12
I220
aI240
aa(lp13
I240
aI260
aa(lp14
I260
aI280
aa(lp15
I280
aI300
aa(lp16
I300
aI320
aa(lp17
I320
aI340
aa(lp18
I340
aI360
aa(lp19
I360
aI380
aa(lp20
I380
aI400
aa(lp21
I400
aI420
aa(lp22
I420
aI440
aa(lp23
I440
aI460
aa(lp24
I460
aI480
aa(lp25
I480
aI500
aa(lp26
I500
aI520
aa(lp27
I520
aI540
aa(lp28
I540
aI560
aa(lp29
I560
aI580
aa(lp30
I580
aI600
aa(lp31
I600
aI620
aa(lp32
I620
aI640
aa(lp33
I640
aI660
aa(lp34
I660
aI680
aa(lp35
I680
aI700
aa(lp36
I700
aI720
aa(lp37
I720
aI740
aa(lp38
I740
aI760
aa(lp39
I760
aI780
aa(lp40
I780
aI800
aa(lp41
I800
aI820
aa(lp42
I820
aI840
aa(lp43
I840
aI860
aa(lp44
I860
aI880
aa(lp45
I880
aI900
aa(lp46
I900
aI920
aa(lp47
I920
aI940
aa(lp48
I940
aI960
aa(lp49
I960
aI980
aa(lp50
I980
aI1000
aa(lp51
I1000
aI1020
aa(lp52
I1020
aI1040
aa(lp53
I1040
aI1060
aa(lp54
I1060
aI1080
aa(lp55
I1080
aI1100
aa(lp56
I1100
aI1120
aa(lp57
I1120
aI1140
aa(lp58
I1140
aI1160
aa(lp59
I1160
aI1180
aa(lp60
I1180
aI1200
aa(lp61
I1200
aI1220
aa(lp62
I1220
aI1240
aa(lp63
I1240
aI1260
aa(lp64
I1260
aI1280
aa(lp65
I1280
aI1300
aa(lp66
I1300
aI1320
aa(lp67
I1320
aI1340
aa(lp68
I1340
aI1360
aa(lp69
I1360
aI1380
aa(lp70
I1380
aI1400
aa(lp71
I1400
aI1420
aa(lp72
I1420
aI1440
aa(lp73
I1440
aI1460
aa(lp74
I1460
aI1480
aa(lp75
I1480
aI1500
aa(lp76
I1500
aI1520
aa(lp77
I1520
aI1540
aa(lp78
I1540
aI1560
aa(lp79
I1560
aI1580
aa(lp80
I1580
aI1600
aa(lp81
I1600
aI1620
aa(lp82
I1620
aI1640
aa(lp83
I1640
aI1660
aa(lp84
I1660
aI1680
aa(lp85
I1680
aI1700
aa(lp86
I1700
aI1720
aa(lp87
I1720
aI1740
aa(lp88
I1740
aI1760
aa(lp89
I1760
aI1780
aa(lp90
I1780
aI1800
aa(lp91
I1800
aI1820
aa(lp92
I1820
aI1840
aa(lp93
I1840
aI1860
aa(lp94
I1860
aI1880
aa(lp95
I1880
aI1900
aa(lp96
I1900
aI1920
aa(lp97
I1920
aI1940
aa(lp98
I1940
aI1960
aa(lp99
I1960
aI1980
aa(lp100
I1980
aI2000
aa(lp101
I2000
aI2020
aa(lp102
I2020
aI2040
aa(lp103
I2040
aI2060
aa(lp104
I2060
aI2080
aa(lp105
I2080
aI2100
aa(lp106
I2100
aI2120
aa(lp107
I2120
aI2140
aa(lp108
I2140
aI2160
aa(lp109
I2160
aI2180
aa(lp110
I2180
aI2200
aa(lp111
I2200
aI2220
aa(lp112
I2220
aI2240
aa(lp113
I2240
aI2260
aa(lp114
I2260
aI2280
aa(lp115
I2280
aI2300
aa(lp116
I2300
aI2320
aa(lp117
I2320
aI2340
aa(lp118
I2340
aI2360
aa(lp119
I2360
aI2380
aa(lp120
I2380
aI2400
aa(lp121
I2400
aI2420
aa(lp122
I2420
aI2440
aa(lp123
I2440
aI2460
aa(lp124
I2460
aI2480
aa(lp125
I2480
aI2500
aa(lp126
I2500
aI2520
aa(lp127
I2520
aI2540
aa(lp128
I2540
aI2560
aa(lp129
I2560
aI2580
aa(lp130
I2580
aI2600
aa(lp131
I2600
aI2620
aa(lp132
I2620
aI2640
aa(lp133
I2640
aI2660
aa(lp134
I2660
aI2680
aa(lp135
I2680
aI2700
aa(lp136
I2700
aI2720
aa(lp137
I2720
aI2740
aa(lp138
I2740
aI2760
aa(lp139
I2760
aI2780
aa(lp140
I2780
aI2800
aa(lp141
I2800
aI2820
aa(lp142
I2820
aI2840
aa(lp143
I2840
aI2860
aa(lp144
I2860
aI2880
aa(lp145
I2880
aI2900
aa(lp146
I2900
aI2920
aa(lp147
I2920
aI2940
aa(lp148
I2940
aI2960
aa(lp149
I2960
aI2980
aa(lp150
I2980
aI3000
aa(lp151
I3000
aI3020
aa(lp152
I3020
aI3040
aa(lp153
I3040
aI3060
aa(lp154
I3060
aI3080
aa(lp155
I3080
aI3100
aa(lp156
I3100
aI3120
aa(lp157
I3120
aI3140
aa(lp158
I3140
aI3160
aa(lp159
I3160
aI3180
aa(lp160
I3180
aI3200
aa(lp161
I3200
aI3220
aa(lp162
I3220
aI3240
aa(lp163
I3240
aI3260
aa(lp164
I3260
aI3280
aa(lp165
I3280
aI3300
aa(lp166
I3300
aI3320
aa(lp167
I3320
aI3340
aa(lp168
I3340
aI3360
aa(lp169
I3360
aI3380
aa(lp170
I3380
aI3400
aa(lp171
I3400
aI3420
aa(lp172
I3420
aI3440
aa(lp173
I3440
aI3460
aa(lp174
I3460
aI3480
aa(lp175
I3480
aI3500
aa(lp176
I3500
aI3520
aa(lp177
I3520
aI3540
aa(lp178
I3540
aI3560
aa(lp179
I3560
aI3580
aa.